target datalayout = "e-m:e-p270:32:32-p271:32:32-p272:64:64-i64:64-i128:128-f80:128-n8:16:32:64-S128"
target triple = "x86_64-pc-linux-gnu"

%struct.strbuf = type { i64, i64, ptr }
%struct.archiver_args = type { ptr, ptr, ptr, ptr, i64, ptr, ptr, ptr, ptr, i64, %struct.pathspec, i8, i32, %struct.string_list, ptr }
%struct.pathspec = type { i32, i8, i32, i32, ptr }
%struct.string_list = type { ptr, i64, i64, i8, ptr }

@.str.9 = private unnamed_addr constant [4 x i8] c"../\00", align 1
@__const.reject_outside.buf = private unnamed_addr constant %struct.strbuf { i64 0, i64 0, ptr @strbuf_slopbuf }, align 8
@__const.reject_outside.path = private unnamed_addr constant %struct.strbuf { i64 0, i64 0, ptr @strbuf_slopbuf }, align 8

; Function Attrs: inlinehint nounwind uwtable
define internal void @strbuf_addstr(ptr noundef %0, ptr noundef %1) #2 {
  %3 = alloca ptr, align 8
  %4 = alloca ptr, align 8
  store ptr %0, ptr %3, align 8, !tbaa !68
  store ptr %1, ptr %4, align 8, !tbaa !50
  %5 = load ptr, ptr %3, align 8, !tbaa !68
  %6 = load ptr, ptr %4, align 8, !tbaa !50
  %7 = load ptr, ptr %4, align 8, !tbaa !50
  %8 = call i64 @strlen(ptr noundef %7) #12
  call void @strbuf_add(ptr noundef %5, ptr noundef %6, i64 noundef %8)
  ret void
}

; Function Attrs: nounwind uwtable
define internal i32 @reject_outside(ptr noundef %0, ptr noundef %1, ptr noundef %2, i32 noundef %3, ptr noundef %4) #0 {
  %6 = alloca i32, align 4
  %7 = alloca ptr, align 8
  %8 = alloca ptr, align 8
  %9 = alloca ptr, align 8
  %10 = alloca i32, align 4
  %11 = alloca ptr, align 8
  %12 = alloca ptr, align 8
  %13 = alloca %struct.strbuf, align 8
  %14 = alloca %struct.strbuf, align 8
  %15 = alloca i32, align 4
  %16 = alloca i32, align 4
  store ptr %0, ptr %7, align 8, !tbaa !65
  store ptr %1, ptr %8, align 8, !tbaa !68
  store ptr %2, ptr %9, align 8, !tbaa !50
  store i32 %3, ptr %10, align 4, !tbaa !9
  store ptr %4, ptr %11, align 8, !tbaa !17
  call void @llvm.lifetime.start.p0(i64 8, ptr %12) #11
  %17 = load ptr, ptr %11, align 8, !tbaa !17
  store ptr %17, ptr %12, align 8, !tbaa !15
  call void @llvm.lifetime.start.p0(i64 24, ptr %13) #11
  call void @llvm.memcpy.p0.p0.i64(ptr align 8 %13, ptr align 8 @__const.reject_outside.buf, i64 24, i1 false)
  call void @llvm.lifetime.start.p0(i64 24, ptr %14) #11
  call void @llvm.memcpy.p0.p0.i64(ptr align 8 %14, ptr align 8 @__const.reject_outside.path, i64 24, i1 false)
  call void @llvm.lifetime.start.p0(i64 4, ptr %15) #11
  store i32 0, ptr %15, align 4, !tbaa !9
  %18 = load i32, ptr %10, align 4, !tbaa !9
  %19 = and i32 %18, 61440
  %20 = icmp eq i32 %19, 16384
  br i1 %20, label %21, label %22

21:                                               ; preds = %5
  store i32 1, ptr %6, align 4
  store i32 1, ptr %16, align 4
  br label %36

22:                                               ; preds = %5
  %23 = load ptr, ptr %8, align 8, !tbaa !68
  call void @strbuf_addbuf(ptr noundef %14, ptr noundef %23)
  %24 = load ptr, ptr %9, align 8, !tbaa !50
  call void @strbuf_addstr(ptr noundef %14, ptr noundef %24)
  %25 = getelementptr inbounds nuw %struct.strbuf, ptr %14, i32 0, i32 2
  %26 = load ptr, ptr %25, align 8, !tbaa !60
  %27 = load ptr, ptr %12, align 8, !tbaa !15
  %28 = getelementptr inbounds nuw %struct.archiver_args, ptr %27, i32 0, i32 2
  %29 = load ptr, ptr %28, align 8, !tbaa !110
  %30 = call ptr @relative_path(ptr noundef %26, ptr noundef %29, ptr noundef %13)
  %31 = call i32 @starts_with(ptr noundef %30, ptr noundef @.str.9)
  %32 = icmp ne i32 %31, 0
  br i1 %32, label %33, label %34

33:                                               ; preds = %22
  store i32 -1, ptr %15, align 4, !tbaa !9
  br label %34

34:                                               ; preds = %33, %22
  call void @strbuf_release(ptr noundef %13)
  call void @strbuf_release(ptr noundef %14)
  %35 = load i32, ptr %15, align 4, !tbaa !9
  store i32 %35, ptr %6, align 4
  store i32 1, ptr %16, align 4
  br label %36

36:                                               ; preds = %34, %21
  call void @llvm.lifetime.end.p0(i64 4, ptr %15) #11
  call void @llvm.lifetime.end.p0(i64 24, ptr %14) #11
  call void @llvm.lifetime.end.p0(i64 24, ptr %13) #11
  call void @llvm.lifetime.end.p0(i64 8, ptr %12) #11
  %37 = load i32, ptr %6, align 4
  ret i32 %37
}