; Function Attrs: nounwind uwtable
define internal range(i32 -1, 2) i32 @reject_outside(ptr readnone captures(none) %0, ptr noundef %1, ptr noundef %2, i32 noundef %3, ptr noundef readonly captures(none) %4) #0 {
  %6 = alloca %struct.strbuf, align 8
  %7 = alloca %struct.strbuf, align 8
  call void @llvm.lifetime.start.p0(i64 24, ptr nonnull %6) #19
  call void @llvm.memcpy.p0.p0.i64(ptr noundef nonnull align 8 dereferenceable(24) %6, ptr noundef nonnull align 8 dereferenceable(24) @__const.reject_entry.sb, i64 24, i1 false)
  call void @llvm.lifetime.start.p0(i64 24, ptr nonnull %7) #19
  call void @llvm.memcpy.p0.p0.i64(ptr noundef nonnull align 8 dereferenceable(24) %7, ptr noundef nonnull align 8 dereferenceable(24) @__const.reject_entry.sb, i64 24, i1 false)
  %8 = and i32 %3, 61440
  %9 = icmp eq i32 %8, 16384
  br i1 %9, label %18, label %10

10:                                               ; preds = %5
  call void @strbuf_addbuf(ptr noundef nonnull %7, ptr noundef %1) #19
  %11 = call i64 @strlen(ptr noundef nonnull dereferenceable(1) %2) #21
  call void @strbuf_add(ptr noundef nonnull %7, ptr noundef nonnull %2, i64 noundef %11) #19
  %12 = getelementptr inbounds nuw i8, ptr %7, i64 16
  %13 = load ptr, ptr %12, align 8, !tbaa !55
  %14 = getelementptr inbounds nuw i8, ptr %4, i64 16
  %15 = load ptr, ptr %14, align 8, !tbaa !103
  %16 = call ptr @relative_path(ptr noundef %13, ptr noundef %15, ptr noundef nonnull %6) #19
  %17 = call i32 @starts_with(ptr noundef %16, ptr noundef nonnull @.str.9) #19
  %.not = icmp ne i32 %17, 0
  %spec.select = sext i1 %.not to i32
  call void @strbuf_release(ptr noundef nonnull %6) #19
  call void @strbuf_release(ptr noundef nonnull %7) #19
  br label %18

18:                                               ; preds = %5, %10
  %.06 = phi i32 [ %spec.select, %10 ], [ 1, %5 ]
  call void @llvm.lifetime.end.p0(i64 24, ptr nonnull %7) #19
  call void @llvm.lifetime.end.p0(i64 24, ptr nonnull %6) #19
  ret i32 %.06
}